target datalayout = "e-m:e-p270:32:32-p271:32:32-p272:64:64-i64:64-i128:128-f80:128-n8:16:32:64-S128"
target triple = "x86_64-pc-linux-gnu"

@error = internal global [1044 x i8] zeroinitializer, align 16
@.str.2 = private unnamed_addr constant [13 x i8] c"0x%16llx: %s\00", align 1
@epos = internal global i64 0, align 8
@.str.4 = private unnamed_addr constant [42 x i8] c"Expected to read %ld bytes, got %ld bytes\00", align 1

; Function Attrs: nounwind uwtable
define dso_local i32 @readBytes(ptr noundef %0, ptr noundef %1, i64 noundef %2) #0 {
  %4 = alloca i32, align 4
  %5 = alloca ptr, align 8
  %6 = alloca ptr, align 8
  %7 = alloca i64, align 8
  %8 = alloca i64, align 8
  %9 = alloca [1024 x i8], align 16
  %10 = alloca i32, align 4
  store ptr %0, ptr %5, align 8, !tbaa !15
  store ptr %1, ptr %6, align 8, !tbaa !5
  store i64 %2, ptr %7, align 8, !tbaa !11
  call void @llvm.lifetime.start.p0(i64 8, ptr %8) #10
  %11 = load ptr, ptr %5, align 8, !tbaa !15
  %12 = call i64 @ftello64(ptr noundef %11)
  store i64 %12, ptr @epos, align 8, !tbaa !11
  %13 = load ptr, ptr %6, align 8, !tbaa !5
  %14 = load i64, ptr %7, align 8, !tbaa !11
  %15 = load ptr, ptr %5, align 8, !tbaa !15
  %16 = call i64 @fread(ptr noundef %13, i64 noundef 1, i64 noundef %14, ptr noundef %15)
  store i64 %16, ptr %8, align 8, !tbaa !11
  %17 = load i64, ptr %8, align 8, !tbaa !11
  %18 = load i64, ptr %7, align 8, !tbaa !11
  %19 = icmp ne i64 %17, %18
  br i1 %19, label %20, label %28

20:                                               ; preds = %3
  call void @llvm.lifetime.start.p0(i64 1024, ptr %9) #10
  %21 = getelementptr inbounds [1024 x i8], ptr %9, i64 0, i64 0
  %22 = load i64, ptr %7, align 8, !tbaa !11
  %23 = load i64, ptr %8, align 8, !tbaa !11
  %24 = call i32 (ptr, i64, ptr, ...) @snprintf(ptr noundef %21, i64 noundef 1024, ptr noundef @.str.4, i64 noundef %22, i64 noundef %23) #10
  %25 = load i64, ptr @epos, align 8, !tbaa !11
  %26 = getelementptr inbounds [1024 x i8], ptr %9, i64 0, i64 0
  %27 = call i32 (ptr, i64, ptr, ...) @snprintf(ptr noundef @error, i64 noundef 1044, ptr noundef @.str.2, i64 noundef %25, ptr noundef %26) #10
  call void @llvm.lifetime.end.p0(i64 1024, ptr %9) #10
  store i32 0, ptr %4, align 4
  store i32 1, ptr %10, align 4
  br label %29

28:                                               ; preds = %3
  store i32 1, ptr %4, align 4
  store i32 1, ptr %10, align 4
  br label %29

29:                                               ; preds = %28, %20
  call void @llvm.lifetime.end.p0(i64 8, ptr %8) #10
  %30 = load i32, ptr %4, align 4
  ret i32 %30
}