; Function Attrs: nofree nounwind uwtable
define dso_local range(i32 0, 2) i32 @readBytes(ptr noundef captures(none) %0, ptr noundef captures(none) %1, i64 noundef %2) local_unnamed_addr #0 {
  %4 = alloca [1024 x i8], align 16
  %5 = tail call i64 @ftello64(ptr noundef %0)
  store i64 %5, ptr @epos, align 8, !tbaa !8
  %6 = tail call i64 @fread(ptr noundef %1, i64 noundef 1, i64 noundef %2, ptr noundef %0)
  %.not = icmp eq i64 %6, %2
  br i1 %.not, label %11, label %7

7:                                                ; preds = %3
  call void @llvm.lifetime.start.p0(i64 1024, ptr nonnull %4) #16
  %8 = call i32 (ptr, i64, ptr, ...) @snprintf(ptr noundef nonnull dereferenceable(1) %4, i64 noundef 1024, ptr noundef nonnull @.str.4, i64 noundef %2, i64 noundef %6) #16
  %9 = load i64, ptr @epos, align 8, !tbaa !8
  %10 = call i32 (ptr, i64, ptr, ...) @snprintf(ptr noundef nonnull dereferenceable(1) @error, i64 noundef 1044, ptr noundef nonnull @.str.2, i64 noundef %9, ptr noundef nonnull %4) #16
  call void @llvm.lifetime.end.p0(i64 1024, ptr nonnull %4) #16
  br label %11

11:                                               ; preds = %3, %7
  %.0 = phi i32 [ 0, %7 ], [ 1, %3 ]
  ret i32 %.0
}